---
triple:          'arm64-apple-darwin'
binary-path:     prog
relocations:
  - { offset: 0x27F86, size: 0x8, addend: 0x0, symName: __ZStL8__ioinit, symObjAddr: 0xDBCEF, symBinAddr: 0x100010000, symSize: 0x0 }
  - { offset: 0x2A0D3, size: 0x8, addend: 0x0, symName: __ZNSt10_Head_baseILm0EZ21custom_exclusive_scanRKSt6vectorIxSaIxEERS2_iEUlvE_Lb0EE7_M_headERS7_, symObjAddr: 0x5DD0, symBinAddr: 0x100007164, symSize: 0x14 }
  - { offset: 0x2A0FC, size: 0x8, addend: 0x0, symName: __ZNSt10_Head_baseILm0EZ21custom_exclusive_scanRKSt6vectorIxSaIxEERS2_iEUlvE0_Lb0EE7_M_headERS7_, symObjAddr: 0x5DBC, symBinAddr: 0x100007150, symSize: 0x14 }
  - { offset: 0x2A125, size: 0x8, addend: 0x0, symName: __ZNSt11_Tuple_implILm0EJZ21custom_exclusive_scanRKSt6vectorIxSaIxEERS2_iEUlvE_EE7_M_headERS7_, symObjAddr: 0x5DA0, symBinAddr: 0x100007134, symSize: 0x1C }
  - { offset: 0x2A14F, size: 0x8, addend: 0x0, symName: __ZNSt11_Tuple_implILm0EJZ21custom_exclusive_scanRKSt6vectorIxSaIxEERS2_iEUlvE0_EE7_M_headERS7_, symObjAddr: 0x5D84, symBinAddr: 0x100007118, symSize: 0x1C }
  - { offset: 0x2A179, size: 0x8, addend: 0x0, symName: __ZSt13__invoke_implIvZ21custom_exclusive_scanRKSt6vectorIxSaIxEERS2_iEUlvE_JEET_St14__invoke_otherOT0_DpOT1_, symObjAddr: 0x5D58, symBinAddr: 0x1000070EC, symSize: 0x2C }
  - { offset: 0x2A1EB, size: 0x8, addend: 0x0, symName: __ZSt12__get_helperILm0EZ21custom_exclusive_scanRKSt6vectorIxSaIxEERS2_iEUlvE_JEERT0_RSt11_Tuple_implIXT_EJS7_DpT1_EE, symObjAddr: 0x5D3C, symBinAddr: 0x1000070D0, symSize: 0x1C }
  - { offset: 0x2A22E, size: 0x8, addend: 0x0, symName: __ZSt13__invoke_implIvZ21custom_exclusive_scanRKSt6vectorIxSaIxEERS2_iEUlvE0_JEET_St14__invoke_otherOT0_DpOT1_, symObjAddr: 0x5D10, symBinAddr: 0x1000070A4, symSize: 0x2C }
  - { offset: 0x2A2A0, size: 0x8, addend: 0x0, symName: __ZSt12__get_helperILm0EZ21custom_exclusive_scanRKSt6vectorIxSaIxEERS2_iEUlvE0_JEERT0_RSt11_Tuple_implIXT_EJS7_DpT1_EE, symObjAddr: 0x5CF4, symBinAddr: 0x100007088, symSize: 0x1C }
  - { offset: 0x2A2E3, size: 0x8, addend: 0x0, symName: __ZSt8__invokeIZ21custom_exclusive_scanRKSt6vectorIxSaIxEERS2_iEUlvE_JEENSt15__invoke_resultIT_JDpT0_EE4typeEOS8_DpOS9_, symObjAddr: 0x5CC4, symBinAddr: 0x100007058, symSize: 0x30 }
  - { offset: 0x2A34E, size: 0x8, addend: 0x0, symName: __ZSt3getILm0EJZ21custom_exclusive_scanRKSt6vectorIxSaIxEERS2_iEUlvE_EEONSt13tuple_elementIXT_ESt5tupleIJDpT0_EEE4typeEOSB_, symObjAddr: 0x5CA0, symBinAddr: 0x100007034, symSize: 0x24 }
  - { offset: 0x2A3D6, size: 0x8, addend: 0x0, symName: __ZSt8__invokeIZ21custom_exclusive_scanRKSt6vectorIxSaIxEERS2_iEUlvE0_JEENSt15__invoke_resultIT_JDpT0_EE4typeEOS8_DpOS9_, symObjAddr: 0x5C70, symBinAddr: 0x100007004, symSize: 0x30 }
  - { offset: 0x2A441, size: 0x8, addend: 0x0, symName: __ZSt3getILm0EJZ21custom_exclusive_scanRKSt6vectorIxSaIxEERS2_iEUlvE0_EEONSt13tuple_elementIXT_ESt5tupleIJDpT0_EEE4typeEOSB_, symObjAddr: 0x5C4C, symBinAddr: 0x100006FE0, symSize: 0x24 }
  - { offset: 0x2A4CD, size: 0x8, addend: 0x0, symName: __ZNSt6thread8_InvokerISt5tupleIJZ21custom_exclusive_scanRKSt6vectorIxSaIxEERS4_iEUlvE_EEE9_M_invokeIJLm0EEEEvSt12_Index_tupleIJXspT_EEE, symObjAddr: 0x5C1C, symBinAddr: 0x100006FB0, symSize: 0x30 }
  - { offset: 0x2A534, size: 0x8, addend: 0x0, symName: __ZNSt6thread8_InvokerISt5tupleIJZ21custom_exclusive_scanRKSt6vectorIxSaIxEERS4_iEUlvE0_EEE9_M_invokeIJLm0EEEEvSt12_Index_tupleIJXspT_EEE, symObjAddr: 0x5BEC, symBinAddr: 0x100006F80, symSize: 0x30 }
  - { offset: 0x2A59B, size: 0x8, addend: 0x0, symName: __ZNSt6thread8_InvokerISt5tupleIJZ21custom_exclusive_scanRKSt6vectorIxSaIxEERS4_iEUlvE_EEEclEv, symObjAddr: 0x5BCC, symBinAddr: 0x100006F60, symSize: 0x20 }
  - { offset: 0x2A5C5, size: 0x8, addend: 0x0, symName: __ZNSt6thread8_InvokerISt5tupleIJZ21custom_exclusive_scanRKSt6vectorIxSaIxEERS4_iEUlvE0_EEEclEv, symObjAddr: 0x5BAC, symBinAddr: 0x100006F40, symSize: 0x20 }
  - { offset: 0x2A5EF, size: 0x8, addend: 0x0, symName: __ZNSt6thread11_State_implINS_8_InvokerISt5tupleIJZ21custom_exclusive_scanRKSt6vectorIxSaIxEERS5_iEUlvE_EEEEE6_M_runEv, symObjAddr: 0x5B88, symBinAddr: 0x100006F1C, symSize: 0x24 }
  - { offset: 0x2A619, size: 0x8, addend: 0x0, symName: __ZNSt6thread11_State_implINS_8_InvokerISt5tupleIJZ21custom_exclusive_scanRKSt6vectorIxSaIxEERS5_iEUlvE0_EEEEE6_M_runEv, symObjAddr: 0x5B64, symBinAddr: 0x100006EF8, symSize: 0x24 }
  - { offset: 0x2A65C, size: 0x8, addend: 0x0, symName: __ZNSt6thread11_State_implINS_8_InvokerISt5tupleIJZ21custom_exclusive_scanRKSt6vectorIxSaIxEERS5_iEUlvE_EEEEED0Ev, symObjAddr: 0x5B3C, symBinAddr: 0x100006ED0, symSize: 0x28 }
  - { offset: 0x2A682, size: 0x8, addend: 0x0, symName: __ZNSt6thread11_State_implINS_8_InvokerISt5tupleIJZ21custom_exclusive_scanRKSt6vectorIxSaIxEERS5_iEUlvE_EEEEED1Ev, symObjAddr: 0x5B0C, symBinAddr: 0x100006EA0, symSize: 0x30 }
  - { offset: 0x2A6C1, size: 0x8, addend: 0x0, symName: __ZNSt6thread11_State_implINS_8_InvokerISt5tupleIJZ21custom_exclusive_scanRKSt6vectorIxSaIxEERS5_iEUlvE0_EEEEED0Ev, symObjAddr: 0x5AE4, symBinAddr: 0x100006E78, symSize: 0x28 }
  - { offset: 0x2A6E7, size: 0x8, addend: 0x0, symName: __ZNSt6thread11_State_implINS_8_InvokerISt5tupleIJZ21custom_exclusive_scanRKSt6vectorIxSaIxEERS5_iEUlvE0_EEEEED1Ev, symObjAddr: 0x5AB4, symBinAddr: 0x100006E48, symSize: 0x30 }
  - { offset: 0x2A709, size: 0x8, addend: 0x0, symName: __ZNSt10_Head_baseILm1ESt14default_deleteINSt6thread6_StateEELb1EE7_M_headERS4_, symObjAddr: 0x5AA0, symBinAddr: 0x100006E34, symSize: 0x14 }
  - { offset: 0x2A732, size: 0x8, addend: 0x0, symName: __ZNSt11_Tuple_implILm1EJSt14default_deleteINSt6thread6_StateEEEE7_M_headERS4_, symObjAddr: 0x5A84, symBinAddr: 0x100006E18, symSize: 0x1C }
  - { offset: 0x2A75C, size: 0x8, addend: 0x0, symName: __ZNSt10_Head_baseILm0EPNSt6thread6_StateELb0EE7_M_headERS3_, symObjAddr: 0x5A70, symBinAddr: 0x100006E04, symSize: 0x14 }
  - { offset: 0x2A7A3, size: 0x8, addend: 0x0, symName: __ZNSt10_Head_baseILm1ESt14default_deleteINSt6thread6_StateEELb1EEC2Ev, symObjAddr: 0x5A5C, symBinAddr: 0x100006DF0, symSize: 0x14 }
  - { offset: 0x2A7F5, size: 0x8, addend: 0x0, symName: __ZNSt10_Head_baseILm0EZ21custom_exclusive_scanRKSt6vectorIxSaIxEERS2_iEUlvE0_Lb0EEC2IS6_EEOT_, symObjAddr: 0x5A1C, symBinAddr: 0x100006DB0, symSize: 0x40 }
  - { offset: 0x2A84C, size: 0x8, addend: 0x0, symName: __ZSt12__get_helperILm1ESt14default_deleteINSt6thread6_StateEEJEERT0_RSt11_Tuple_implIXT_EJS4_DpT1_EE, symObjAddr: 0x5A00, symBinAddr: 0x100006D94, symSize: 0x1C }
  - { offset: 0x2A88F, size: 0x8, addend: 0x0, symName: __ZNSt11_Tuple_implILm0EJPNSt6thread6_StateESt14default_deleteIS1_EEE7_M_headERS5_, symObjAddr: 0x59E4, symBinAddr: 0x100006D78, symSize: 0x1C }
  - { offset: 0x2A8D7, size: 0x8, addend: 0x0, symName: __ZNSt10_Head_baseILm0EPNSt6thread6_StateELb0EEC2Ev, symObjAddr: 0x59C8, symBinAddr: 0x100006D5C, symSize: 0x1C }
  - { offset: 0x2A917, size: 0x8, addend: 0x0, symName: __ZNSt11_Tuple_implILm1EJSt14default_deleteINSt6thread6_StateEEEEC2Ev, symObjAddr: 0x59A8, symBinAddr: 0x100006D3C, symSize: 0x20 }
  - { offset: 0x2A969, size: 0x8, addend: 0x0, symName: __ZNSt10_Head_baseILm0EZ21custom_exclusive_scanRKSt6vectorIxSaIxEERS2_iEUlvE_Lb0EEC2IS6_EEOT_, symObjAddr: 0x5968, symBinAddr: 0x100006CFC, symSize: 0x40 }
  - { offset: 0x2A9C0, size: 0x8, addend: 0x0, symName: __ZSt9__fill_a1IPxxEvT_S1_RKT0_, symObjAddr: 0x5908, symBinAddr: 0x100006C9C, symSize: 0x60 }
  - { offset: 0x2AAAB, size: 0x8, addend: 0x0, symName: __ZNSt11_Tuple_implILm0EJZ21custom_exclusive_scanRKSt6vectorIxSaIxEERS2_iEUlvE0_EEC2IS6_EEOT_, symObjAddr: 0x58D8, symBinAddr: 0x100006C6C, symSize: 0x30 }
  - { offset: 0x2AB0A, size: 0x8, addend: 0x0, symName: __ZSt3getILm1EJPNSt6thread6_StateESt14default_deleteIS1_EEERNSt13tuple_elementIXT_ESt5tupleIJDpT0_EEE4typeERS9_, symObjAddr: 0x58BC, symBinAddr: 0x100006C50, symSize: 0x1C }
  - { offset: 0x2AB4E, size: 0x8, addend: 0x0, symName: __ZSt12__get_helperILm0EPNSt6thread6_StateEJSt14default_deleteIS1_EEERT0_RSt11_Tuple_implIXT_EJS5_DpT1_EE, symObjAddr: 0x58A0, symBinAddr: 0x100006C34, symSize: 0x1C }
  - { offset: 0x2ABB4, size: 0x8, addend: 0x0, symName: __ZNSt11_Tuple_implILm0EJPNSt6thread6_StateESt14default_deleteIS1_EEEC2Ev, symObjAddr: 0x5878, symBinAddr: 0x100006C0C, symSize: 0x28 }
  - { offset: 0x2AC07, size: 0x8, addend: 0x0, symName: __ZNSt11_Tuple_implILm0EJZ21custom_exclusive_scanRKSt6vectorIxSaIxEERS2_iEUlvE_EEC2IS6_EEOT_, symObjAddr: 0x5848, symBinAddr: 0x100006BDC, symSize: 0x30 }
  - { offset: 0x2ACB9, size: 0x8, addend: 0x0, symName: __ZSt19__relocate_object_aIiiSaIiEEvPT_PT0_RT1_, symObjAddr: 0x57C8, symBinAddr: 0x100006B5C, symSize: 0x80 }
  - { offset: 0x2AE69, size: 0x8, addend: 0x0, symName: __ZNSt5tupleIJZ21custom_exclusive_scanRKSt6vectorIxSaIxEERS2_iEUlvE0_EEC1IJS6_EEEDpOT_, symObjAddr: 0x5798, symBinAddr: 0x100006B2C, symSize: 0x30 }
  - { offset: 0x2AED2, size: 0x8, addend: 0x0, symName: __ZNSt15__uniq_ptr_implINSt6thread6_StateESt14default_deleteIS1_EE10_M_deleterEv, symObjAddr: 0x577C, symBinAddr: 0x100006B10, symSize: 0x1C }
  - { offset: 0x2AEFF, size: 0x8, addend: 0x0, symName: __ZSt3getILm0EJPNSt6thread6_StateESt14default_deleteIS1_EEERNSt13tuple_elementIXT_ESt5tupleIJDpT0_EEE4typeERS9_, symObjAddr: 0x5760, symBinAddr: 0x100006AF4, symSize: 0x1C }
  - { offset: 0x2AF61, size: 0x8, addend: 0x0, symName: __ZNSt5tupleIJPNSt6thread6_StateESt14default_deleteIS1_EEEC1EvQfraa26is_default_constructible_vIT_E, symObjAddr: 0x5740, symBinAddr: 0x100006AD4, symSize: 0x20 }
  - { offset: 0x2AFB8, size: 0x8, addend: 0x0, symName: __ZNSt5tupleIJZ21custom_exclusive_scanRKSt6vectorIxSaIxEERS2_iEUlvE_EEC1IJS6_EEEDpOT_, symObjAddr: 0x5710, symBinAddr: 0x100006AA4, symSize: 0x30 }
  - { offset: 0x2B01D, size: 0x8, addend: 0x0, symName: __ZSt12construct_atISt6threadJS0_EQaant20is_unbounded_array_vIT_ErqXgsnwcvPvLi0E_S1_pispcl7declvalIT0_EEEEEPS1_S4_DpOS3_, symObjAddr: 0x569C, symBinAddr: 0x100006A30, symSize: 0x74 }
  - { offset: 0x2B12D, size: 0x8, addend: 0x0, symName: __ZSt12construct_atIxJEQaant20is_unbounded_array_vIT_ErqXgsnwcvPvLi0E_S0_pispcl7declvalIT0_EEEEEPS0_S3_DpOS2_, symObjAddr: 0x5640, symBinAddr: 0x1000069D4, symSize: 0x5C }
  - { offset: 0x2B182, size: 0x8, addend: 0x0, symName: __ZNSt15__new_allocatorIxE8allocateEmPKv, symObjAddr: 0x55C4, symBinAddr: 0x100006958, symSize: 0x7C }
  - { offset: 0x2B244, size: 0x8, addend: 0x0, symName: __ZSt14__relocate_a_1IPiN9__gnu_cxx17__normal_iteratorIS0_vEESaIiEET0_T_S6_S5_RT1_, symObjAddr: 0x5548, symBinAddr: 0x1000068DC, symSize: 0x7C }
  - { offset: 0x2B35B, size: 0x8, addend: 0x0, symName: __ZNSt15__new_allocatorIiE8allocateEmPKv, symObjAddr: 0x54CC, symBinAddr: 0x100006860, symSize: 0x7C }
  - { offset: 0x2B402, size: 0x8, addend: 0x0, symName: __ZNSt6thread8_InvokerISt5tupleIJZ21custom_exclusive_scanRKSt6vectorIxSaIxEERS4_iEUlvE0_EEEC1IJS8_EEEDpOT_, symObjAddr: 0x549C, symBinAddr: 0x100006830, symSize: 0x30 }
  - { offset: 0x2B46B, size: 0x8, addend: 0x0, symName: __ZNKSt14default_deleteINSt6thread6_StateEEclEPS1_, symObjAddr: 0x5464, symBinAddr: 0x1000067F8, symSize: 0x38 }
  - { offset: 0x2B4CA, size: 0x8, addend: 0x0, symName: __ZNSt10unique_ptrINSt6thread6_StateESt14default_deleteIS1_EE11get_deleterEv, symObjAddr: 0x5448, symBinAddr: 0x1000067DC, symSize: 0x1C }
  - { offset: 0x2B4F4, size: 0x8, addend: 0x0, symName: __ZNSt15__uniq_ptr_implINSt6thread6_StateESt14default_deleteIS1_EE6_M_ptrEv, symObjAddr: 0x542C, symBinAddr: 0x1000067C0, symSize: 0x1C }
  - { offset: 0x2B545, size: 0x8, addend: 0x0, symName: __ZNSt15__uniq_ptr_implINSt6thread6_StateESt14default_deleteIS1_EEC2EPS1_, symObjAddr: 0x53F0, symBinAddr: 0x100006784, symSize: 0x3C }
  - { offset: 0x2B5A5, size: 0x8, addend: 0x0, symName: __ZNSt6thread8_InvokerISt5tupleIJZ21custom_exclusive_scanRKSt6vectorIxSaIxEERS4_iEUlvE_EEEC1IJS8_EEEDpOT_, symObjAddr: 0x53C0, symBinAddr: 0x100006754, symSize: 0x30 }
  - { offset: 0x2B753, size: 0x8, addend: 0x0, symName: __ZNSt19_UninitDestroyGuardIPxvE7releaseEv, symObjAddr: 0x53A4, symBinAddr: 0x100006738, symSize: 0x1C }
  - { offset: 0x2B779, size: 0x8, addend: 0x0, symName: __ZSt10_ConstructIxJEEvPT_DpOT0_, symObjAddr: 0x5340, symBinAddr: 0x1000066D4, symSize: 0x64 }
  - { offset: 0x2B7F1, size: 0x8, addend: 0x0, symName: __ZNSt19_UninitDestroyGuardIPxvED1Ev, symObjAddr: 0x52E8, symBinAddr: 0x10000667C, symSize: 0x58 }
  - { offset: 0x2B877, size: 0x8, addend: 0x0, symName: __ZNKSt6vectorIiSaIiEE3endEv, symObjAddr: 0x52B8, symBinAddr: 0x10000664C, symSize: 0x30 }
  - { offset: 0x2B8CB, size: 0x8, addend: 0x0, symName: __ZNKSt6vectorIiSaIiEE5beginEv, symObjAddr: 0x528C, symBinAddr: 0x100006620, symSize: 0x2C }
  - { offset: 0x2B91B, size: 0x8, addend: 0x0, symName: __ZSt14__relocate_a_1IiiENSt9enable_ifIXsrSt24__is_bitwise_relocatableIT_vE5valueEPS2_E4typeES4_S4_S4_RSaIT0_E, symObjAddr: 0x51E4, symBinAddr: 0x100006578, symSize: 0xA8 }
  - { offset: 0x2BA71, size: 0x8, addend: 0x0, symName: __ZNSt15__new_allocatorIiE10deallocateEPim, symObjAddr: 0x51B4, symBinAddr: 0x100006548, symSize: 0x30 }
  - { offset: 0x2BAEC, size: 0x8, addend: 0x0, symName: __ZNSt6chrono8durationIdSt5ratioILl1ELl1000EEEC1IdvEERKT_, symObjAddr: 0x518C, symBinAddr: 0x100006520, symSize: 0x28 }
  - { offset: 0x2BB54, size: 0x8, addend: 0x0, symName: __ZNSt6thread11_State_implINS_8_InvokerISt5tupleIJZ21custom_exclusive_scanRKSt6vectorIxSaIxEERS5_iEUlvE0_EEEEEC1IJS9_EEEDpOT_, symObjAddr: 0x5140, symBinAddr: 0x1000064D4, symSize: 0x4C }
  - { offset: 0x2BC2F, size: 0x8, addend: 0x0, symName: __ZNSt4pairIN9__gnu_cxx17__normal_iteratorIPxSt6vectorIxSaIxEEEExEC1IRS6_xEEOT_OT0_, symObjAddr: 0x50F4, symBinAddr: 0x100006488, symSize: 0x4C }
  - { offset: 0x2BD70, size: 0x8, addend: 0x0, symName: __ZNSt10unique_ptrINSt6thread6_StateESt14default_deleteIS1_EED1Ev, symObjAddr: 0x5090, symBinAddr: 0x100006424, symSize: 0x64 }
  - { offset: 0x2BE18, size: 0x8, addend: 0x0, symName: __ZNSt10unique_ptrINSt6thread6_StateESt14default_deleteIS1_EEC1IS3_vEEPS1_, symObjAddr: 0x5068, symBinAddr: 0x1000063FC, symSize: 0x28 }
  - { offset: 0x2BE72, size: 0x8, addend: 0x0, symName: __ZNSt15__uniq_ptr_dataINSt6thread6_StateESt14default_deleteIS1_ELb1ELb1EECI1St15__uniq_ptr_implIS1_S3_EEPS1_, symObjAddr: 0x5040, symBinAddr: 0x1000063D4, symSize: 0x28 }
  - { offset: 0x2BED1, size: 0x8, addend: 0x0, symName: __ZNSt6thread11_State_implINS_8_InvokerISt5tupleIJZ21custom_exclusive_scanRKSt6vectorIxSaIxEERS5_iEUlvE_EEEEEC1IJS9_EEEDpOT_, symObjAddr: 0x4FF4, symBinAddr: 0x100006388, symSize: 0x4C }
  - { offset: 0x2BF55, size: 0x8, addend: 0x0, symName: __ZNSt6thread6_StateC2Ev, symObjAddr: 0x4FCC, symBinAddr: 0x100006360, symSize: 0x28 }
  - { offset: 0x2BF77, size: 0x8, addend: 0x0, symName: __ZSt16transform_reduceIN9__gnu_cxx17__normal_iteratorIPKxSt6vectorIxSaIxEEEExSt4plusIxEN6__pstl10__internal7__no_opEET0_T_SE_SD_T1_T2_, symObjAddr: 0x4DE8, symBinAddr: 0x10000617C, symSize: 0x1E4 }
  - { offset: 0x2C29D, size: 0x8, addend: 0x0, symName: __ZSt19__relocate_object_aISt6threadS0_SaIS0_EEvPT_PT0_RT1_, symObjAddr: 0x4D68, symBinAddr: 0x1000060FC, symSize: 0x80 }
  - { offset: 0x2C3DA, size: 0x8, addend: 0x0, symName: __ZNSt15__new_allocatorISt6threadE8allocateEmPKv, symObjAddr: 0x4CEC, symBinAddr: 0x100006080, symSize: 0x7C }
  - { offset: 0x2C44C, size: 0x8, addend: 0x0, symName: __ZSt10destroy_atISt6threadEvPT_, symObjAddr: 0x4CCC, symBinAddr: 0x100006060, symSize: 0x20 }
  - { offset: 0x2C482, size: 0x8, addend: 0x0, symName: __ZNSt15__new_allocatorISt6threadE10deallocateEPS0_m, symObjAddr: 0x4C9C, symBinAddr: 0x100006030, symSize: 0x30 }
  - { offset: 0x2C4CC, size: 0x8, addend: 0x0, symName: __ZNSt15__new_allocatorIxE10deallocateEPxm, symObjAddr: 0x4C6C, symBinAddr: 0x100006000, symSize: 0x30 }
  - { offset: 0x2C512, size: 0x8, addend: 0x0, symName: __ZNSt27__uninitialized_default_n_1ILb1EE18__uninit_default_nIPxmEET_S3_T0_, symObjAddr: 0x4B78, symBinAddr: 0x100005F0C, symSize: 0xF4 }
  - { offset: 0x2C680, size: 0x8, addend: 0x0, symName: __ZNSt27__uninitialized_default_n_1ILb0EE18__uninit_default_nIPxmEET_S3_T0_, symObjAddr: 0x4AFC, symBinAddr: 0x100005E90, symSize: 0x7C }
  - { offset: 0x2C72D, size: 0x8, addend: 0x0, symName: __ZNSt19_UninitDestroyGuardIPxvEC1ERS0_, symObjAddr: 0x4AC8, symBinAddr: 0x100005E5C, symSize: 0x34 }
  - { offset: 0x2C7A4, size: 0x8, addend: 0x0, symName: __ZNKSt6vectorIiSaIiEE5emptyEv, symObjAddr: 0x4A70, symBinAddr: 0x100005E04, symSize: 0x58 }
  - { offset: 0x2C840, size: 0x8, addend: 0x0, symName: __ZSt12construct_atIiJiEQaant20is_unbounded_array_vIT_ErqXgsnwcvPvLi0E_S0_pispcl7declvalIT0_EEEEEPS0_S3_DpOS2_, symObjAddr: 0x4A00, symBinAddr: 0x100005D94, symSize: 0x70 }
  - { offset: 0x2C8C3, size: 0x8, addend: 0x0, symName: __ZSt12__relocate_aIPiS0_SaIiEET0_T_S3_S2_RT1_, symObjAddr: 0x49B4, symBinAddr: 0x100005D48, symSize: 0x4C }
  - { offset: 0x2C9CB, size: 0x8, addend: 0x0, symName: __ZSt10destroy_atIiEvPT_, symObjAddr: 0x49A0, symBinAddr: 0x100005D34, symSize: 0x14 }
  - { offset: 0x2CA4B, size: 0x8, addend: 0x0, symName: __ZNSt6chrono20__duration_cast_implINS_8durationIdSt5ratioILl1ELl1000EEEES2_ILl1ELl1000000EEdLb1ELb0EE6__castIxS2_ILl1ELl1000000000EEEES4_RKNS1_IT_T0_EE, symObjAddr: 0x4950, symBinAddr: 0x100005CE4, symSize: 0x50 }
  - { offset: 0x2CAF8, size: 0x8, addend: 0x0, symName: __ZNSt6threadC1IZ21custom_exclusive_scanRKSt6vectorIxSaIxEERS3_iEUlvE0_JEvEEOT_DpOT0_, symObjAddr: 0x4874, symBinAddr: 0x100005C08, symSize: 0xDC }
  - { offset: 0x2CB7F, size: 0x8, addend: 0x0, symName: __ZNK6__pstl10__internal7__no_opclIRKxEEOT_S6_, symObjAddr: 0x4854, symBinAddr: 0x100005BE8, symSize: 0x20 }
  - { offset: 0x2CC43, size: 0x8, addend: 0x0, symName: __ZSt9make_pairIRN9__gnu_cxx17__normal_iteratorIPxSt6vectorIxSaIxEEEExESt4pairINSt25__strip_reference_wrapperINSt5decayIT_E4typeEE6__typeENS9_INSA_IT0_E4typeEE6__typeEEOSB_OSG_, symObjAddr: 0x4818, symBinAddr: 0x100005BAC, symSize: 0x3C }
  - { offset: 0x2CCDC, size: 0x8, addend: 0x0, symName: __ZNKSt4plusIxEclERKxS2_, symObjAddr: 0x47EC, symBinAddr: 0x100005B80, symSize: 0x2C }
  - { offset: 0x2CD63, size: 0x8, addend: 0x0, symName: __ZNKSt6vectorISt6threadSaIS0_EE3endEv, symObjAddr: 0x47BC, symBinAddr: 0x100005B50, symSize: 0x30 }
  - { offset: 0x2CDB7, size: 0x8, addend: 0x0, symName: __ZNKSt6vectorISt6threadSaIS0_EE5beginEv, symObjAddr: 0x4790, symBinAddr: 0x100005B24, symSize: 0x2C }
  - { offset: 0x2CE48, size: 0x8, addend: 0x0, symName: __ZNSt6threadC1IZ21custom_exclusive_scanRKSt6vectorIxSaIxEERS3_iEUlvE_JEvEEOT_DpOT0_, symObjAddr: 0x46B4, symBinAddr: 0x100005A48, symSize: 0xDC }
  - { offset: 0x2CEBF, size: 0x8, addend: 0x0, symName: __ZN6__pstl10__internal24__brick_transform_reduceIN9__gnu_cxx17__normal_iteratorIPKxSt6vectorIxSaIxEEEExSt4plusIxENS0_7__no_opEEET0_T_SE_SD_T1_T2_St17integral_constantIbLb0EE, symObjAddr: 0x4674, symBinAddr: 0x100005A08, symSize: 0x40 }
  - { offset: 0x2CF55, size: 0x8, addend: 0x0, symName: __ZSt14__relocate_a_1IPSt6threadS1_SaIS0_EET0_T_S4_S3_RT1_, symObjAddr: 0x45FC, symBinAddr: 0x100005990, symSize: 0x78 }
  - { offset: 0x2D068, size: 0x8, addend: 0x0, symName: __ZSt8_DestroyISt6threadEvPT_, symObjAddr: 0x45DC, symBinAddr: 0x100005970, symSize: 0x20 }
  - { offset: 0x2D120, size: 0x8, addend: 0x0, symName: __ZNSt23mersenne_twister_engineIjLm32ELm624ELm397ELm31ELj2567483615ELm11ELj4294967295ELm7ELj2636928640ELm15ELj4022730752ELm18ELj1812433253EE11_M_gen_randEv, symObjAddr: 0x441C, symBinAddr: 0x1000057B0, symSize: 0x1C0 }
  - { offset: 0x2D209, size: 0x8, addend: 0x0, symName: __ZNSt8__detail4_ModIjLj624ELj1ELj0ELb1ELb1EE6__calcEj, symObjAddr: 0x43E4, symBinAddr: 0x100005778, symSize: 0x38 }
  - { offset: 0x2D242, size: 0x8, addend: 0x0, symName: __ZNSt8__detail4_ModIjLj0ELj1ELj0ELb1ELb0EE6__calcEj, symObjAddr: 0x43C8, symBinAddr: 0x10000575C, symSize: 0x1C }
  - { offset: 0x2D27B, size: 0x8, addend: 0x0, symName: __ZSt10destroy_atIxEvPT_, symObjAddr: 0x43B4, symBinAddr: 0x100005748, symSize: 0x14 }
  - { offset: 0x2D2CB, size: 0x8, addend: 0x0, symName: __ZSt25__uninitialized_default_nIPxmET_S1_T0_, symObjAddr: 0x4364, symBinAddr: 0x1000056F8, symSize: 0x50 }
  - { offset: 0x2D32D, size: 0x8, addend: 0x0, symName: __ZNSt12_Vector_baseIxSaIxEE11_M_allocateEm, symObjAddr: 0x42A0, symBinAddr: 0x100005634, symSize: 0xC4 }
  - { offset: 0x2D3F5, size: 0x8, addend: 0x0, symName: __ZNSt12_Vector_baseIxSaIxEE17_Vector_impl_dataC2Ev, symObjAddr: 0x4274, symBinAddr: 0x100005608, symSize: 0x2C }
  - { offset: 0x2D41B, size: 0x8, addend: 0x0, symName: __ZNSt6vectorIiSaIiEE4backEv, symObjAddr: 0x41D8, symBinAddr: 0x10000556C, symSize: 0x9C }
  - { offset: 0x2D4D4, size: 0x8, addend: 0x0, symName: __ZNSt6vectorIiSaIiEE17_M_realloc_appendIJiEEEvDpOT_, symObjAddr: 0x4028, symBinAddr: 0x1000053BC, symSize: 0x1B0 }
  - { offset: 0x2D726, size: 0x8, addend: 0x0, symName: __ZNSt6vectorIiSaIiEE11_S_relocateEPiS2_S2_RS0_, symObjAddr: 0x3FF4, symBinAddr: 0x100005388, symSize: 0x34 }
  - { offset: 0x2D7BF, size: 0x8, addend: 0x0, symName: __ZNSt6vectorIiSaIiEE12_Guard_allocD1Ev, symObjAddr: 0x3FA8, symBinAddr: 0x10000533C, symSize: 0x4C }
  - { offset: 0x2D829, size: 0x8, addend: 0x0, symName: __ZNSt6vectorIiSaIiEE12_Guard_allocC1EPimRSt12_Vector_baseIiS0_E, symObjAddr: 0x3F64, symBinAddr: 0x1000052F8, symSize: 0x44 }
  - { offset: 0x2D86A, size: 0x8, addend: 0x0, symName: __ZNSt12_Vector_baseIiSaIiEE11_M_allocateEm, symObjAddr: 0x3EA0, symBinAddr: 0x100005234, symSize: 0xC4 }
  - { offset: 0x2D914, size: 0x8, addend: 0x0, symName: __ZSt12construct_atIiJRKiEQaant20is_unbounded_array_vIT_ErqXgsnwcvPvLi0E_S2_pispcl7declvalIT0_EEEEEPS2_S5_DpOS4_, symObjAddr: 0x3E30, symBinAddr: 0x1000051C4, symSize: 0x70 }
  - { offset: 0x2D9BC, size: 0x8, addend: 0x0, symName: __ZSt8_DestroyIPiEvT_S1_, symObjAddr: 0x3DD4, symBinAddr: 0x100005168, symSize: 0x5C }
  - { offset: 0x2DA81, size: 0x8, addend: 0x0, symName: __ZN6__pstl10__internal16__except_handlerIZNS0_24__pattern_transform_scanISt17integral_constantIbLb0EERKNS_9execution2v115parallel_policyEN9__gnu_cxx17__normal_iteratorIPxSt6vectorIxSaIxEEEESG_NS0_7__no_opExSt4plusIxES4_EENSt9enable_ifIXntsrSt17is_floating_pointIT4_E5valueET2_E4typeENS0_14__parallel_tagIT_EEOT0_T1_SW_SO_T3_SM_T5_T6_EUlvE_EEDTclfp_EESS_, symObjAddr: 0x3DB0, symBinAddr: 0x100005144, symSize: 0x24 }
  - { offset: 0x2DAC3, size: 0x8, addend: 0x0, symName: __ZN6__pstl16__serial_backend25__parallel_transform_scanIRKNS_9execution2v115parallel_policyElZZNS_10__internal24__pattern_transform_scanISt17integral_constantIbLb0EES6_N9__gnu_cxx17__normal_iteratorIPxSt6vectorIxSaIxEEEESH_NS7_7__no_opExSt4plusIxESA_EENSt9enable_ifIXntsrSt17is_floating_pointIT4_E5valueET2_E4typeENS7_14__parallel_tagIT_EEOT0_T1_SX_SP_T3_SN_T5_T6_ENKUlvE_clEvEUllE_xSK_ZZNS8_ISA_S6_SH_SH_SI_xSK_SA_EESR_SU_SW_SX_SX_SP_SY_SN_SZ_S10_ENKS11_clEvEUlllxE_ZZNS8_ISA_S6_SH_SH_SI_xSK_SA_EESR_SU_SW_SX_SX_SP_SY_SN_SZ_S10_ENKS11_clEvEUlllxE0_EESP_NS7_20__serial_backend_tagEOST_SV_SX_SP_SY_SN_SZ_, symObjAddr: 0x3D74, symBinAddr: 0x100005108, symSize: 0x3C }
  - { offset: 0x2DB7D, size: 0x8, addend: 0x0, symName: __ZNK6__pstl10__internal7__no_opclIRxEEOT_S5_, symObjAddr: 0x3D54, symBinAddr: 0x1000050E8, symSize: 0x20 }
  - { offset: 0x2DC15, size: 0x8, addend: 0x0, symName: __ZNSt6chrono13duration_castINS_8durationIdSt5ratioILl1ELl1000EEEExS2_ILl1ELl1000000000EEEENSt9enable_ifIXsrNS_13__is_durationIT_EE5valueES8_E4typeERKNS1_IT0_T1_EE, symObjAddr: 0x3D28, symBinAddr: 0x1000050BC, symSize: 0x2C }
  - { offset: 0x2DC97, size: 0x8, addend: 0x0, symName: __ZNKSt4plusIvEclIRxS2_EEDTplcl7forwardIT_Efp_Ecl7forwardIT0_Efp0_EEOS3_OS4_, symObjAddr: 0x3CEC, symBinAddr: 0x100005080, symSize: 0x3C }
  - { offset: 0x2DD35, size: 0x8, addend: 0x0, symName: __ZSt12construct_atISt6threadJZ21custom_exclusive_scanRKSt6vectorIxSaIxEERS3_iEUlvE0_EQaant20is_unbounded_array_vIT_ErqXgsnwcvPvLi0E_S8_pispcl7declvalIT0_EEEEEPS8_SB_DpOSA_, symObjAddr: 0x3C40, symBinAddr: 0x100004FD4, symSize: 0xAC }
  - { offset: 0x2DDB8, size: 0x8, addend: 0x0, symName: __ZN6__pstl10__internal22__brick_transform_scanIN9__gnu_cxx17__normal_iteratorIPKxSt6vectorIxSaIxEEEENS3_IPxS8_EENS0_7__no_opExSt4plusIxEEESt4pairIT0_T2_ET_SJ_SG_T1_SH_T3_St17integral_constantIbLb0EESN_, symObjAddr: 0x3B68, symBinAddr: 0x100004EFC, symSize: 0xD8 }
  - { offset: 0x2DFE4, size: 0x8, addend: 0x0, symName: __ZN6__pstl10__internal22__brick_transform_scanIN9__gnu_cxx17__normal_iteratorIPxSt6vectorIxSaIxEEEES8_NS0_7__no_opExSt4plusIxEEESt4pairIT0_T2_ET_SG_SD_T1_SE_T3_St17integral_constantIbLb0EESK_, symObjAddr: 0x3A90, symBinAddr: 0x100004E24, symSize: 0xD8 }
  - { offset: 0x2E238, size: 0x8, addend: 0x0, symName: __ZNKSt6vectorISt6threadSaIS0_EE5emptyEv, symObjAddr: 0x3A38, symBinAddr: 0x100004DCC, symSize: 0x58 }
  - { offset: 0x2E309, size: 0x8, addend: 0x0, symName: __ZNSt6vectorISt6threadSaIS0_EE12_Guard_allocD1Ev, symObjAddr: 0x39EC, symBinAddr: 0x100004D80, symSize: 0x4C }
  - { offset: 0x2E373, size: 0x8, addend: 0x0, symName: __ZNSt6vectorISt6threadSaIS0_EE12_Guard_allocC1EPS0_mRSt12_Vector_baseIS0_S1_E, symObjAddr: 0x39A8, symBinAddr: 0x100004D3C, symSize: 0x44 }
  - { offset: 0x2E3B0, size: 0x8, addend: 0x0, symName: __ZSt12construct_atISt6threadJZ21custom_exclusive_scanRKSt6vectorIxSaIxEERS3_iEUlvE_EQaant20is_unbounded_array_vIT_ErqXgsnwcvPvLi0E_S8_pispcl7declvalIT0_EEEEEPS8_SB_DpOSA_, symObjAddr: 0x38FC, symBinAddr: 0x100004C90, symSize: 0xAC }
  - { offset: 0x2E43A, size: 0x8, addend: 0x0, symName: __ZN6__pstl10__internal26__pattern_transform_reduceINS0_12__serial_tagISt17integral_constantIbLb0EEEERKNS_9execution2v116sequenced_policyEN9__gnu_cxx17__normal_iteratorIPKxSt6vectorIxSaIxEEEExSt4plusIxENS0_7__no_opEEET2_T_OT0_T1_SQ_SM_T3_T4_, symObjAddr: 0x38B4, symBinAddr: 0x100004C48, symSize: 0x48 }
  - { offset: 0x2E4EB, size: 0x8, addend: 0x0, symName: __ZN6__pstl10__internal16__select_backendIJRN9__gnu_cxx17__normal_iteratorIPKxSt6vectorIxSaIxEEEEEEENS0_12__serial_tagISt17integral_constantIbLb0EEEENS_9execution2v116sequenced_policyEDpOT_, symObjAddr: 0x3898, symBinAddr: 0x100004C2C, symSize: 0x1C }
  - { offset: 0x2E524, size: 0x8, addend: 0x0, symName: __ZSt12__relocate_aIPSt6threadS1_SaIS0_EET0_T_S4_S3_RT1_, symObjAddr: 0x384C, symBinAddr: 0x100004BE0, symSize: 0x4C }
  - { offset: 0x2E62C, size: 0x8, addend: 0x0, symName: __ZSt8_DestroyIPSt6threadEvT_S2_, symObjAddr: 0x37FC, symBinAddr: 0x100004B90, symSize: 0x50 }
  - { offset: 0x2E718, size: 0x8, addend: 0x0, symName: __ZNSt23mersenne_twister_engineIjLm32ELm624ELm397ELm31ELj2567483615ELm11ELj4294967295ELm7ELj2636928640ELm15ELj4022730752ELm18ELj1812433253EEclEv, symObjAddr: 0x3748, symBinAddr: 0x100004ADC, symSize: 0xB4 }
  - { offset: 0x2E756, size: 0x8, addend: 0x0, symName: __ZNSt24uniform_int_distributionIxE5_S_ndIySt23mersenne_twister_engineIjLm32ELm624ELm397ELm31ELj2567483615ELm11ELj4294967295ELm7ELj2636928640ELm15ELj4022730752ELm18ELj1812433253EEjEET1_RT0_S4_, symObjAddr: 0x36A4, symBinAddr: 0x100004A38, symSize: 0xA4 }
  - { offset: 0x2E7F6, size: 0x8, addend: 0x0, symName: __ZNKSt24uniform_int_distributionIxE10param_type1aEv, symObjAddr: 0x368C, symBinAddr: 0x100004A20, symSize: 0x18 }
  - { offset: 0x2E820, size: 0x8, addend: 0x0, symName: __ZNKSt24uniform_int_distributionIxE10param_type1bEv, symObjAddr: 0x3674, symBinAddr: 0x100004A08, symSize: 0x18 }
  - { offset: 0x2E846, size: 0x8, addend: 0x0, symName: __ZNSt8__detail5__modIjLj624ELj1ELj0EEET_S1_, symObjAddr: 0x3658, symBinAddr: 0x1000049EC, symSize: 0x1C }
  - { offset: 0x2E897, size: 0x8, addend: 0x0, symName: __ZNSt8__detail5__modIjLj0ELj1ELj0EEET_S1_, symObjAddr: 0x363C, symBinAddr: 0x1000049D0, symSize: 0x1C }
  - { offset: 0x2E8E7, size: 0x8, addend: 0x0, symName: __ZSt8_DestroyIPxEvT_S1_, symObjAddr: 0x35E0, symBinAddr: 0x100004974, symSize: 0x5C }
  - { offset: 0x2E965, size: 0x8, addend: 0x0, symName: __ZSt27__uninitialized_default_n_aIPxmxET_S1_T0_RSaIT1_E, symObjAddr: 0x35B8, symBinAddr: 0x10000494C, symSize: 0x28 }
  - { offset: 0x2E9C8, size: 0x8, addend: 0x0, symName: __ZNSt12_Vector_baseIxSaIxEE17_M_create_storageEm, symObjAddr: 0x3558, symBinAddr: 0x1000048EC, symSize: 0x60 }
  - { offset: 0x2EA2A, size: 0x8, addend: 0x0, symName: __ZNSt12_Vector_baseIxSaIxEE12_Vector_implC1ERKS0_, symObjAddr: 0x350C, symBinAddr: 0x1000048A0, symSize: 0x4C }
  - { offset: 0x2EAAD, size: 0x8, addend: 0x0, symName: __ZNSt6vectorIxSaIxEE11_S_max_sizeERKS0_, symObjAddr: 0x34D8, symBinAddr: 0x10000486C, symSize: 0x34 }
  - { offset: 0x2EAFD, size: 0x8, addend: 0x0, symName: __ZNSt6vectorIiSaIiEE12emplace_backIJiEEERiDpOT_, symObjAddr: 0x3430, symBinAddr: 0x1000047C4, symSize: 0xA8 }
  - { offset: 0x2EC09, size: 0x8, addend: 0x0, symName: __ZNSt6vectorIiSaIiEE17_M_realloc_appendIJRKiEEEvDpOT_, symObjAddr: 0x3280, symBinAddr: 0x100004614, symSize: 0x1B0 }
  - { offset: 0x2EE93, size: 0x8, addend: 0x0, symName: __ZNSt6vectorIiSaIiEE11_S_max_sizeERKS0_, symObjAddr: 0x324C, symBinAddr: 0x1000045E0, symSize: 0x34 }
  - { offset: 0x2EEE3, size: 0x8, addend: 0x0, symName: __ZNKSt12_Vector_baseIiSaIiEE19_M_get_Tp_allocatorEv, symObjAddr: 0x3238, symBinAddr: 0x1000045CC, symSize: 0x14 }
  - { offset: 0x2EF0D, size: 0x8, addend: 0x0, symName: __ZNKSt6vectorIiSaIiEE8max_sizeEv, symObjAddr: 0x3218, symBinAddr: 0x1000045AC, symSize: 0x20 }
  - { offset: 0x2EF37, size: 0x8, addend: 0x0, symName: __ZNKSt6vectorIiSaIiEE12_M_check_lenEmPKc, symObjAddr: 0x3148, symBinAddr: 0x1000044DC, symSize: 0xD0 }
  - { offset: 0x2EF94, size: 0x8, addend: 0x0, symName: __ZNKSt6vectorIiSaIiEE4sizeEv, symObjAddr: 0x3108, symBinAddr: 0x10000449C, symSize: 0x40 }
  - { offset: 0x2F052, size: 0x8, addend: 0x0, symName: __ZNSt12_Vector_baseIiSaIiEE19_M_get_Tp_allocatorEv, symObjAddr: 0x30F4, symBinAddr: 0x100004488, symSize: 0x14 }
  - { offset: 0x2F07C, size: 0x8, addend: 0x0, symName: __ZNSt12_Vector_baseIiSaIiEE13_M_deallocateEPim, symObjAddr: 0x3068, symBinAddr: 0x1000043FC, symSize: 0x8C }
  - { offset: 0x2F14A, size: 0x8, addend: 0x0, symName: __ZN6__pstl10__internal24__pattern_transform_scanISt17integral_constantIbLb0EERKNS_9execution2v115parallel_policyEN9__gnu_cxx17__normal_iteratorIPxSt6vectorIxSaIxEEEESF_NS0_7__no_opExSt4plusIxES3_EENSt9enable_ifIXntsrSt17is_floating_pointIT4_E5valueET2_E4typeENS0_14__parallel_tagIT_EEOT0_T1_SV_SN_T3_SL_T5_T6_, symObjAddr: 0x2FD0, symBinAddr: 0x100004364, symSize: 0x98 }
  - { offset: 0x2F2C3, size: 0x8, addend: 0x0, symName: __ZZN6__pstl10__internal24__pattern_transform_scanISt17integral_constantIbLb0EERKNS_9execution2v115parallel_policyEN9__gnu_cxx17__normal_iteratorIPxSt6vectorIxSaIxEEEESF_NS0_7__no_opExSt4plusIxES3_EENSt9enable_ifIXntsrSt17is_floating_pointIT4_E5valueET2_E4typeENS0_14__parallel_tagIT_EEOT0_T1_SV_SN_T3_SL_T5_T6_ENKUlvE_clEv, symObjAddr: 0x2D58, symBinAddr: 0x1000040EC, symSize: 0x17C }
  - { offset: 0x2F4C5, size: 0x8, addend: 0x0, symName: __ZZZN6__pstl10__internal24__pattern_transform_scanISt17integral_constantIbLb0EERKNS_9execution2v115parallel_policyEN9__gnu_cxx17__normal_iteratorIPxSt6vectorIxSaIxEEEESF_NS0_7__no_opExSt4plusIxES3_EENSt9enable_ifIXntsrSt17is_floating_pointIT4_E5valueET2_E4typeENS0_14__parallel_tagIT_EEOT0_T1_SV_SN_T3_SL_T5_T6_ENKUlvE_clEvENKUlllxE0_clEllx, symObjAddr: 0x2ED4, symBinAddr: 0x100004268, symSize: 0xFC }
  - { offset: 0x2F7FE, size: 0x8, addend: 0x0, symName: __ZN6__pstl10__internal16__select_backendIJRN9__gnu_cxx17__normal_iteratorIPxSt6vectorIxSaIxEEEES9_EEENSt11conditionalIXsrSt17integral_constantIbXfraa23__is_random_access_iterINSt12remove_cvrefIT_E4typeEEEE5valueENS0_14__parallel_tagISB_IbLb0EEEENS0_12__serial_tagISI_EEE4typeENS_9execution2v115parallel_policyEDpOSD_, symObjAddr: 0x2D38, symBinAddr: 0x1000040CC, symSize: 0x20 }
  - { offset: 0x2F849, size: 0x8, addend: 0x0, symName: __ZNKSt6chrono8durationIdSt5ratioILl1ELl1000EEE5countEv, symObjAddr: 0x2D1C, symBinAddr: 0x1000040B0, symSize: 0x1C }
  - { offset: 0x2F8AD, size: 0x8, addend: 0x0, symName: __ZNSt6chrono8durationIdSt5ratioILl1ELl1000EEEC1IxS1_ILl1ELl1000000000EEvEERKNS0_IT_T0_EE, symObjAddr: 0x2CDC, symBinAddr: 0x100004070, symSize: 0x40 }
  - { offset: 0x2F8F1, size: 0x8, addend: 0x0, symName: __ZNSt6chronomiINS_3_V212system_clockENS_8durationIxSt5ratioILl1ELl1000000000EEEES6_EENSt11common_typeIJT0_T1_EE4typeERKNS_10time_pointIT_S8_EERKNSC_ISD_S9_EE, symObjAddr: 0x2CA0, symBinAddr: 0x100004034, symSize: 0x3C }
  - { offset: 0x2F947, size: 0x8, addend: 0x0, symName: __ZSt14exclusive_scanIN9__gnu_cxx17__normal_iteratorIPxSt6vectorIxSaIxEEEES6_xSt4plusIvEET0_T_SA_S9_T1_T2_, symObjAddr: 0x2BD0, symBinAddr: 0x100003F64, symSize: 0xD0 }
  - { offset: 0x2FB90, size: 0x8, addend: 0x0, symName: __ZNSt6vectorISt6threadSaIS0_EE17_M_realloc_appendIJZ21custom_exclusive_scanRKS_IxSaIxEERS5_iEUlvE0_EEEvDpOT_, symObjAddr: 0x2A04, symBinAddr: 0x100003D98, symSize: 0x1CC }
  - { offset: 0x2FDFB, size: 0x8, addend: 0x0, symName: __ZN6__pstl10__internal24__pattern_transform_scanINS0_12__serial_tagISt17integral_constantIbLb0EEEERKNS_9execution2v116sequenced_policyEN9__gnu_cxx17__normal_iteratorIPKxSt6vectorIxSaIxEEEENSC_IPxSH_EENS0_7__no_opExSt4plusIxES4_EET2_T_OT0_T1_SS_SO_T3_T4_T5_T6_, symObjAddr: 0x29A0, symBinAddr: 0x100003D34, symSize: 0x64 }
  - { offset: 0x2FEF8, size: 0x8, addend: 0x0, symName: __ZN6__pstl10__internal16__select_backendIJRN9__gnu_cxx17__normal_iteratorIPKxSt6vectorIxSaIxEEEERNS3_IPxS8_EEEEENS0_12__serial_tagISt17integral_constantIbLb0EEEENS_9execution2v116sequenced_policyEDpOT_, symObjAddr: 0x2980, symBinAddr: 0x100003D14, symSize: 0x20 }
  - { offset: 0x2FF3F, size: 0x8, addend: 0x0, symName: __ZN6__pstl10__internal24__pattern_transform_scanINS0_12__serial_tagISt17integral_constantIbLb0EEEERKNS_9execution2v116sequenced_policyEN9__gnu_cxx17__normal_iteratorIPxSt6vectorIxSaIxEEEESH_NS0_7__no_opExSt4plusIxES4_EET2_T_OT0_T1_SP_SL_T3_T4_T5_T6_, symObjAddr: 0x291C, symBinAddr: 0x100003CB0, symSize: 0x64 }
  - { offset: 0x3003C, size: 0x8, addend: 0x0, symName: __ZN6__pstl10__internal16__select_backendIJRN9__gnu_cxx17__normal_iteratorIPxSt6vectorIxSaIxEEEES9_EEENS0_12__serial_tagISt17integral_constantIbLb0EEEENS_9execution2v116sequenced_policyEDpOT_, symObjAddr: 0x28FC, symBinAddr: 0x100003C90, symSize: 0x20 }
  - { offset: 0x30087, size: 0x8, addend: 0x0, symName: __ZNSt6vectorISt6threadSaIS0_EE15_M_erase_at_endEPS0_, symObjAddr: 0x2874, symBinAddr: 0x100003C08, symSize: 0x88 }
  - { offset: 0x3011C, size: 0x8, addend: 0x0, symName: __ZNSt6vectorISt6threadSaIS0_EE4backEv, symObjAddr: 0x27D8, symBinAddr: 0x100003B6C, symSize: 0x9C }
  - { offset: 0x301D5, size: 0x8, addend: 0x0, symName: __ZNSt6vectorISt6threadSaIS0_EE17_M_realloc_appendIJZ21custom_exclusive_scanRKS_IxSaIxEERS5_iEUlvE_EEEvDpOT_, symObjAddr: 0x260C, symBinAddr: 0x1000039A0, symSize: 0x1CC }
  - { offset: 0x30453, size: 0x8, addend: 0x0, symName: __ZNSt6vectorISt6threadSaIS0_EE11_S_max_sizeERKS1_, symObjAddr: 0x25D8, symBinAddr: 0x10000396C, symSize: 0x34 }
  - { offset: 0x304A3, size: 0x8, addend: 0x0, symName: __ZNKSt12_Vector_baseISt6threadSaIS0_EE19_M_get_Tp_allocatorEv, symObjAddr: 0x25C4, symBinAddr: 0x100003958, symSize: 0x14 }
  - { offset: 0x304CD, size: 0x8, addend: 0x0, symName: __ZNKSt6vectorISt6threadSaIS0_EE12_M_check_lenEmPKc, symObjAddr: 0x24F4, symBinAddr: 0x100003888, symSize: 0xD0 }
  - { offset: 0x30593, size: 0x8, addend: 0x0, symName: __ZSt16transform_reduceIRKN6__pstl9execution2v116sequenced_policyEN9__gnu_cxx17__normal_iteratorIPKxSt6vectorIxSaIxEEEExSt4plusIxENS0_10__internal7__no_opEENSt9enable_ifIXsrNS2_19is_execution_policyINSt9remove_cvINSt16remove_referenceIT_E4typeEE4typeEEE5valueET1_E4typeEOSM_T0_SW_SS_T2_T3_, symObjAddr: 0x2480, symBinAddr: 0x100003814, symSize: 0x74 }
  - { offset: 0x306B5, size: 0x8, addend: 0x0, symName: __ZNSt6vectorISt6threadSaIS0_EE11_S_relocateEPS0_S3_S3_RS1_, symObjAddr: 0x244C, symBinAddr: 0x1000037E0, symSize: 0x34 }
  - { offset: 0x30716, size: 0x8, addend: 0x0, symName: __ZNSt12_Vector_baseISt6threadSaIS0_EE11_M_allocateEm, symObjAddr: 0x2388, symBinAddr: 0x10000371C, symSize: 0xC4 }
  - { offset: 0x307C4, size: 0x8, addend: 0x0, symName: __ZNKSt6vectorISt6threadSaIS0_EE8capacityEv, symObjAddr: 0x2348, symBinAddr: 0x1000036DC, symSize: 0x40 }
  - { offset: 0x307FF, size: 0x8, addend: 0x0, symName: __ZNKSt6vectorISt6threadSaIS0_EE8max_sizeEv, symObjAddr: 0x2328, symBinAddr: 0x1000036BC, symSize: 0x20 }
  - { offset: 0x30864, size: 0x8, addend: 0x0, symName: __ZNSt12_Vector_baseISt6threadSaIS0_EE19_M_get_Tp_allocatorEv, symObjAddr: 0x2314, symBinAddr: 0x1000036A8, symSize: 0x14 }
  - { offset: 0x3088E, size: 0x8, addend: 0x0, symName: __ZNSt12_Vector_baseISt6threadSaIS0_EE13_M_deallocateEPS0_m, symObjAddr: 0x2288, symBinAddr: 0x10000361C, symSize: 0x8C }
  - { offset: 0x30960, size: 0x8, addend: 0x0, symName: __ZNSt12_Vector_baseIxSaIxEE13_M_deallocateEPxm, symObjAddr: 0x21FC, symBinAddr: 0x100003590, symSize: 0x8C }
  - { offset: 0x30A55, size: 0x8, addend: 0x0, symName: __ZNSt24uniform_int_distributionIxEclISt23mersenne_twister_engineIjLm32ELm624ELm397ELm31ELj2567483615ELm11ELj4294967295ELm7ELj2636928640ELm15ELj4022730752ELm18ELj1812433253EEEExRT_RKNS0_10param_typeE, symObjAddr: 0x20BC, symBinAddr: 0x100003450, symSize: 0x140 }
  - { offset: 0x30C1A, size: 0x8, addend: 0x0, symName: __ZNSt24uniform_int_distributionIxE10param_typeC1Exx, symObjAddr: 0x203C, symBinAddr: 0x1000033D0, symSize: 0x80 }
  - { offset: 0x30C6A, size: 0x8, addend: 0x0, symName: __ZNSt23mersenne_twister_engineIjLm32ELm624ELm397ELm31ELj2567483615ELm11ELj4294967295ELm7ELj2636928640ELm15ELj4022730752ELm18ELj1812433253EE4seedEj, symObjAddr: 0x1F70, symBinAddr: 0x100003304, symSize: 0xCC }
  - { offset: 0x30D28, size: 0x8, addend: 0x0, symName: __ZNSt12_Vector_baseIxSaIxEE19_M_get_Tp_allocatorEv, symObjAddr: 0x1F5C, symBinAddr: 0x1000032F0, symSize: 0x14 }
  - { offset: 0x30D52, size: 0x8, addend: 0x0, symName: __ZNSt6vectorIxSaIxEE21_M_default_initializeEm, symObjAddr: 0x1F0C, symBinAddr: 0x1000032A0, symSize: 0x50 }
  - { offset: 0x30DC3, size: 0x8, addend: 0x0, symName: __ZNSt12_Vector_baseIxSaIxEEC2EmRKS0_, symObjAddr: 0x1EB8, symBinAddr: 0x10000324C, symSize: 0x54 }
  - { offset: 0x30DF7, size: 0x8, addend: 0x0, symName: __ZNSt6vectorIxSaIxEE17_S_check_init_lenEmRKS0_, symObjAddr: 0x1E44, symBinAddr: 0x1000031D8, symSize: 0x74 }
  - { offset: 0x30EBF, size: 0x8, addend: 0x0, symName: __ZNSt6chronomiIxSt5ratioILl1ELl1000000000EExS2_EENSt11common_typeIJNS_8durationIT_T0_EENS4_IT1_T2_EEEE4typeERKS7_RKSA_, symObjAddr: 0x1DE0, symBinAddr: 0x100003174, symSize: 0x64 }
  - { offset: 0x30F83, size: 0x8, addend: 0x0, symName: __Z10measure_msIZ8run_testmEUlvE2_EdT_, symObjAddr: 0x1D80, symBinAddr: 0x100003114, symSize: 0x60 }
  - { offset: 0x30FEF, size: 0x8, addend: 0x0, symName: __ZNSt6vectorIiSaIiEE3endEv, symObjAddr: 0x1D50, symBinAddr: 0x1000030E4, symSize: 0x30 }
  - { offset: 0x31043, size: 0x8, addend: 0x0, symName: __ZNSt6vectorIiSaIiEE5beginEv, symObjAddr: 0x1D24, symBinAddr: 0x1000030B8, symSize: 0x2C }
  - { offset: 0x31097, size: 0x8, addend: 0x0, symName: __ZNSt6vectorIiSaIiEE9push_backEOi, symObjAddr: 0x1CF0, symBinAddr: 0x100003084, symSize: 0x34 }
  - { offset: 0x310F6, size: 0x8, addend: 0x0, symName: __ZNSt6vectorIiSaIiEE9push_backERKi, symObjAddr: 0x1C60, symBinAddr: 0x100002FF4, symSize: 0x90 }
  - { offset: 0x311A5, size: 0x8, addend: 0x0, symName: __ZNSt6vectorIiSaIiEED1Ev, symObjAddr: 0x1C04, symBinAddr: 0x100002F98, symSize: 0x5C }
  - { offset: 0x3121B, size: 0x8, addend: 0x0, symName: __ZNSt12_Vector_baseIiSaIiEED2Ev, symObjAddr: 0x1BB4, symBinAddr: 0x100002F48, symSize: 0x50 }
  - { offset: 0x3125A, size: 0x8, addend: 0x0, symName: __Z10measure_msIZ8run_testmEUlvE1_EdT_, symObjAddr: 0x1B5C, symBinAddr: 0x100002EF0, symSize: 0x58 }
  - { offset: 0x312AC, size: 0x8, addend: 0x0, symName: __ZSt14exclusive_scanIRKN6__pstl9execution2v115parallel_policyEN9__gnu_cxx17__normal_iteratorIPxSt6vectorIxSaIxEEEESC_xENSt9enable_ifIXsrNS2_19is_execution_policyINSt9remove_cvINSt16remove_referenceIT_E4typeEE4typeEEE5valueET1_E4typeEOSH_T0_SR_SN_T2_, symObjAddr: 0x1AD4, symBinAddr: 0x100002E68, symSize: 0x88 }
  - { offset: 0x3137B, size: 0x8, addend: 0x0, symName: __Z10measure_msIZ8run_testmEUlvE0_EdT_, symObjAddr: 0x1A7C, symBinAddr: 0x100002E10, symSize: 0x58 }
  - { offset: 0x313D4, size: 0x8, addend: 0x0, symName: __Z10measure_msIZ8run_testmEUlvE_EdT_, symObjAddr: 0x1A24, symBinAddr: 0x100002DB8, symSize: 0x58 }
  - { offset: 0x31426, size: 0x8, addend: 0x0, symName: __ZSt14exclusive_scanIN9__gnu_cxx17__normal_iteratorIPxSt6vectorIxSaIxEEEES6_xET0_T_S8_S7_T1_, symObjAddr: 0x19E8, symBinAddr: 0x100002D7C, symSize: 0x3C }
  - { offset: 0x314C3, size: 0x8, addend: 0x0, symName: __ZNSt6vectorISt6threadSaIS0_EE12emplace_backIJZ21custom_exclusive_scanRKS_IxSaIxEERS5_iEUlvE0_EEERS0_DpOT_, symObjAddr: 0x1940, symBinAddr: 0x100002CD4, symSize: 0xA8 }
  - { offset: 0x315A6, size: 0x8, addend: 0x0, symName: __ZSt14exclusive_scanIRKN6__pstl9execution2v116sequenced_policyEN9__gnu_cxx17__normal_iteratorIPKxSt6vectorIxSaIxEEEENS7_IPxSC_EExENSt9enable_ifIXsrNS2_19is_execution_policyINSt9remove_cvINSt16remove_referenceIT_E4typeEE4typeEEE5valueET1_E4typeEOSK_T0_SU_SQ_T2_, symObjAddr: 0x18B8, symBinAddr: 0x100002C4C, symSize: 0x88 }
  - { offset: 0x31692, size: 0x8, addend: 0x0, symName: __ZSt14exclusive_scanIRKN6__pstl9execution2v116sequenced_policyEN9__gnu_cxx17__normal_iteratorIPxSt6vectorIxSaIxEEEESC_xENSt9enable_ifIXsrNS2_19is_execution_policyINSt9remove_cvINSt16remove_referenceIT_E4typeEE4typeEEE5valueET1_E4typeEOSH_T0_SR_SN_T2_, symObjAddr: 0x1830, symBinAddr: 0x100002BC4, symSize: 0x88 }
  - { offset: 0x3175E, size: 0x8, addend: 0x0, symName: __ZNSt6vectorISt6threadSaIS0_EE5clearEv, symObjAddr: 0x1804, symBinAddr: 0x100002B98, symSize: 0x2C }
  - { offset: 0x3179E, size: 0x8, addend: 0x0, symName: __ZNSt6vectorISt6threadSaIS0_EE3endEv, symObjAddr: 0x17D4, symBinAddr: 0x100002B68, symSize: 0x30 }
  - { offset: 0x317F2, size: 0x8, addend: 0x0, symName: __ZNSt6vectorISt6threadSaIS0_EE5beginEv, symObjAddr: 0x17A8, symBinAddr: 0x100002B3C, symSize: 0x2C }
  - { offset: 0x31846, size: 0x8, addend: 0x0, symName: __ZNSt6vectorISt6threadSaIS0_EE12emplace_backIJZ21custom_exclusive_scanRKS_IxSaIxEERS5_iEUlvE_EEERS0_DpOT_, symObjAddr: 0x1700, symBinAddr: 0x100002A94, symSize: 0xA8 }
  - { offset: 0x31929, size: 0x8, addend: 0x0, symName: __ZSt6reduceIRKN6__pstl9execution2v116sequenced_policyEN9__gnu_cxx17__normal_iteratorIPKxSt6vectorIxSaIxEEEExENSt9enable_ifIXsrNS2_19is_execution_policyINSt9remove_cvINSt16remove_referenceIT_E4typeEE4typeEEE5valueET1_E4typeEOSI_T0_SS_SO_, symObjAddr: 0x16C4, symBinAddr: 0x100002A58, symSize: 0x3C }
  - { offset: 0x319C4, size: 0x8, addend: 0x0, symName: __ZNSt6vectorIxSaIxEEixEm, symObjAddr: 0x1640, symBinAddr: 0x1000029D4, symSize: 0x84 }
  - { offset: 0x31A1C, size: 0x8, addend: 0x0, symName: __ZNKSt6vectorIxSaIxEE3endEv, symObjAddr: 0x1610, symBinAddr: 0x1000029A4, symSize: 0x30 }
  - { offset: 0x31A94, size: 0x8, addend: 0x0, symName: __ZNKSt6vectorIxSaIxEE5beginEv, symObjAddr: 0x15E4, symBinAddr: 0x100002978, symSize: 0x2C }
  - { offset: 0x31AE8, size: 0x8, addend: 0x0, symName: __ZNSt6vectorISt6threadSaIS0_EE7reserveEm, symObjAddr: 0x14A8, symBinAddr: 0x10000283C, symSize: 0x13C }
  - { offset: 0x31B55, size: 0x8, addend: 0x0, symName: __ZNKSt6vectorISt6threadSaIS0_EE4sizeEv, symObjAddr: 0x1468, symBinAddr: 0x1000027FC, symSize: 0x40 }
  - { offset: 0x31BAA, size: 0x8, addend: 0x0, symName: __ZNSt6vectorISt6threadSaIS0_EED1Ev, symObjAddr: 0x140C, symBinAddr: 0x1000027A0, symSize: 0x5C }
  - { offset: 0x31C20, size: 0x8, addend: 0x0, symName: __ZNSt12_Vector_baseISt6threadSaIS0_EED2Ev, symObjAddr: 0x13BC, symBinAddr: 0x100002750, symSize: 0x50 }
  - { offset: 0x31C5C, size: 0x8, addend: 0x0, symName: __ZNKSt6vectorIxSaIxEE4sizeEv, symObjAddr: 0x137C, symBinAddr: 0x100002710, symSize: 0x40 }
  - { offset: 0x31CB1, size: 0x8, addend: 0x0, symName: __ZNSt12_Vector_baseIxSaIxEED2Ev, symObjAddr: 0x132C, symBinAddr: 0x1000026C0, symSize: 0x50 }
  - { offset: 0x31CD7, size: 0x8, addend: 0x0, symName: __ZNSt24uniform_int_distributionIxEclISt23mersenne_twister_engineIjLm32ELm624ELm397ELm31ELj2567483615ELm11ELj4294967295ELm7ELj2636928640ELm15ELj4022730752ELm18ELj1812433253EEEExRT_, symObjAddr: 0x1300, symBinAddr: 0x100002694, symSize: 0x2C }
  - { offset: 0x31D30, size: 0x8, addend: 0x0, symName: __ZNSt6vectorIxSaIxEE3endEv, symObjAddr: 0x12D0, symBinAddr: 0x100002664, symSize: 0x30 }
  - { offset: 0x31D84, size: 0x8, addend: 0x0, symName: __ZNSt6vectorIxSaIxEE5beginEv, symObjAddr: 0x12A4, symBinAddr: 0x100002638, symSize: 0x2C }
  - { offset: 0x31E0C, size: 0x8, addend: 0x0, symName: __ZNSt24uniform_int_distributionIxEC1Exx, symObjAddr: 0x1274, symBinAddr: 0x100002608, symSize: 0x30 }
  - { offset: 0x31E6C, size: 0x8, addend: 0x0, symName: __ZNSt23mersenne_twister_engineIjLm32ELm624ELm397ELm31ELj2567483615ELm11ELj4294967295ELm7ELj2636928640ELm15ELj4022730752ELm18ELj1812433253EEC1Ej, symObjAddr: 0x124C, symBinAddr: 0x1000025E0, symSize: 0x28 }
  - { offset: 0x31EB5, size: 0x8, addend: 0x0, symName: __ZNSt6vectorIxSaIxEED1Ev, symObjAddr: 0x11F0, symBinAddr: 0x100002584, symSize: 0x5C }
  - { offset: 0x31F47, size: 0x8, addend: 0x0, symName: __ZNSt6vectorIxSaIxEEC1EmRKS0_, symObjAddr: 0x1188, symBinAddr: 0x10000251C, symSize: 0x68 }
  - { offset: 0x31FA7, size: 0x8, addend: 0x0, symName: __ZSt4swapINSt6thread2idEENSt9enable_ifIXsrSt6__and_IJSt6__not_ISt15__is_tuple_likeIT_EESt21is_move_constructibleIS6_ESt18is_move_assignableIS6_EEE5valueEvE4typeERS6_SG_, symObjAddr: 0x1134, symBinAddr: 0x1000024C8, symSize: 0x54 }
  - { offset: 0x32063, size: 0x8, addend: 0x0, symName: __ZNKSt6chrono10time_pointINS_3_V212system_clockENS_8durationIxSt5ratioILl1ELl1000000000EEEEE16time_since_epochEv, symObjAddr: 0x111C, symBinAddr: 0x1000024B0, symSize: 0x18 }
  - { offset: 0x32089, size: 0x8, addend: 0x0, symName: __ZSt3maxImERKT_S2_S2_, symObjAddr: 0x10E4, symBinAddr: 0x100002478, symSize: 0x38 }
  - { offset: 0x320D4, size: 0x8, addend: 0x0, symName: _main, symObjAddr: 0x10AC, symBinAddr: 0x100002440, symSize: 0x38 }
  - { offset: 0x320F3, size: 0x8, addend: 0x0, symName: __Z8run_testm, symObjAddr: 0xC38, symBinAddr: 0x100001FCC, symSize: 0x474 }
  - { offset: 0x3216E, size: 0x8, addend: 0x0, symName: __ZZ8run_testmENKUlvE_clEv, symObjAddr: 0xAA8, symBinAddr: 0x100001E3C, symSize: 0x60 }
  - { offset: 0x3220E, size: 0x8, addend: 0x0, symName: __ZZ8run_testmENKUlvE0_clEv, symObjAddr: 0xB08, symBinAddr: 0x100001E9C, symSize: 0x68 }
  - { offset: 0x322AE, size: 0x8, addend: 0x0, symName: __ZZ8run_testmENKUlvE1_clEv, symObjAddr: 0xB70, symBinAddr: 0x100001F04, symSize: 0x68 }
  - { offset: 0x32411, size: 0x8, addend: 0x0, symName: __ZZ8run_testmENKUlvE2_clEv, symObjAddr: 0xBF8, symBinAddr: 0x100001F8C, symSize: 0x40 }
  - { offset: 0x32638, size: 0x8, addend: 0x0, symName: __ZNSt12_Vector_baseIiSaIiEE12_Vector_implD1Ev, symObjAddr: 0xBD8, symBinAddr: 0x100001F6C, symSize: 0x20 }
  - { offset: 0x32684, size: 0x8, addend: 0x0, symName: __Z21custom_exclusive_scanRKSt6vectorIxSaIxEERS1_i, symObjAddr: 0x768, symBinAddr: 0x100001AFC, symSize: 0x340 }
  - { offset: 0x3277D, size: 0x8, addend: 0x0, symName: __ZZ21custom_exclusive_scanRKSt6vectorIxSaIxEERS1_iENKUlvE_clEv, symObjAddr: 0x488, symBinAddr: 0x10000181C, symSize: 0x148 }
  - { offset: 0x32A62, size: 0x8, addend: 0x0, symName: __ZZ21custom_exclusive_scanRKSt6vectorIxSaIxEERS1_iENKUlvE0_clEv, symObjAddr: 0x5D0, symBinAddr: 0x100001964, symSize: 0x198 }
  - { offset: 0x32EB8, size: 0x8, addend: 0x0, symName: __ZNSt12_Vector_baseISt6threadSaIS0_EE12_Vector_implD1Ev, symObjAddr: 0x468, symBinAddr: 0x1000017FC, symSize: 0x20 }
  - { offset: 0x32F08, size: 0x8, addend: 0x0, symName: __Z13generate_datam, symObjAddr: 0x350, symBinAddr: 0x1000016E4, symSize: 0x118 }
  - { offset: 0x330E2, size: 0x8, addend: 0x0, symName: __ZNSt12_Vector_baseIxSaIxEE12_Vector_implD1Ev, symObjAddr: 0x330, symBinAddr: 0x1000016C4, symSize: 0x20 }
  - { offset: 0x33189, size: 0x8, addend: 0x0, symName: __ZSteqNSt6thread2idES0_, symObjAddr: 0x308, symBinAddr: 0x10000169C, symSize: 0x28 }
  - { offset: 0x331C8, size: 0x8, addend: 0x0, symName: __ZNKSt6thread8joinableEv, symObjAddr: 0x2D4, symBinAddr: 0x100001668, symSize: 0x34 }
  - { offset: 0x331F2, size: 0x8, addend: 0x0, symName: __ZNSt6thread4swapERS_, symObjAddr: 0x2AC, symBinAddr: 0x100001640, symSize: 0x28 }
  - { offset: 0x33253, size: 0x8, addend: 0x0, symName: __ZNSt6threadC1EOS_, symObjAddr: 0x27C, symBinAddr: 0x100001610, symSize: 0x30 }
  - { offset: 0x3329C, size: 0x8, addend: 0x0, symName: __ZNSt6threadD1Ev, symObjAddr: 0x24C, symBinAddr: 0x1000015E0, symSize: 0x30 }
  - { offset: 0x332D7, size: 0x8, addend: 0x0, symName: __ZNSt6thread24_M_thread_deps_never_runEv, symObjAddr: 0x244, symBinAddr: 0x1000015D8, symSize: 0x8 }
  - { offset: 0x3330D, size: 0x8, addend: 0x0, symName: __ZNSt6thread2idC1Ev, symObjAddr: 0x228, symBinAddr: 0x1000015BC, symSize: 0x1C }
  - { offset: 0x3332F, size: 0x8, addend: 0x0, symName: __ZSt12setprecisioni, symObjAddr: 0x214, symBinAddr: 0x1000015A8, symSize: 0x14 }
  - { offset: 0x3338D, size: 0x8, addend: 0x0, symName: __ZNSt6chrono8durationIxSt5ratioILl1ELl1000000000EEEC1IxvEERKT_, symObjAddr: 0x1EC, symBinAddr: 0x100001580, symSize: 0x28 }
  - { offset: 0x333C5, size: 0x8, addend: 0x0, symName: __ZNKSt6chrono8durationIxSt5ratioILl1ELl1000000000EEE5countEv, symObjAddr: 0x1D4, symBinAddr: 0x100001568, symSize: 0x18 }
  - { offset: 0x333EB, size: 0x8, addend: 0x0, symName: __ZSt3minImERKT_S2_S2_, symObjAddr: 0x19C, symBinAddr: 0x100001530, symSize: 0x38 }
  - { offset: 0x3342D, size: 0x8, addend: 0x0, symName: __ZSt5fixedRSt8ios_base, symObjAddr: 0x174, symBinAddr: 0x100001508, symSize: 0x28 }
  - { offset: 0x33467, size: 0x8, addend: 0x0, symName: __ZNSt8ios_base4setfESt13_Ios_FmtflagsS0_, symObjAddr: 0x114, symBinAddr: 0x1000014A8, symSize: 0x60 }
  - { offset: 0x334CE, size: 0x8, addend: 0x0, symName: __ZStaNRSt13_Ios_FmtflagsS_, symObjAddr: 0xDC, symBinAddr: 0x100001470, symSize: 0x38 }
  - { offset: 0x33507, size: 0x8, addend: 0x0, symName: __ZStoRRSt13_Ios_FmtflagsS_, symObjAddr: 0xA4, symBinAddr: 0x100001438, symSize: 0x38 }
  - { offset: 0x33540, size: 0x8, addend: 0x0, symName: __ZStcoSt13_Ios_Fmtflags, symObjAddr: 0x8C, symBinAddr: 0x100001420, symSize: 0x18 }
  - { offset: 0x33569, size: 0x8, addend: 0x0, symName: __ZStorSt13_Ios_FmtflagsS_, symObjAddr: 0x6C, symBinAddr: 0x100001400, symSize: 0x20 }
  - { offset: 0x335A2, size: 0x8, addend: 0x0, symName: __ZStanSt13_Ios_FmtflagsS_, symObjAddr: 0x4C, symBinAddr: 0x1000013E0, symSize: 0x20 }
  - { offset: 0x335DB, size: 0x8, addend: 0x0, symName: __ZSt17__size_to_integerm, symObjAddr: 0x38, symBinAddr: 0x1000013CC, symSize: 0x14 }
  - { offset: 0x33605, size: 0x8, addend: 0x0, symName: __ZSt21is_constant_evaluatedv, symObjAddr: 0x30, symBinAddr: 0x1000013C4, symSize: 0x8 }
  - { offset: 0x33624, size: 0x8, addend: 0x0, symName: __ZdlPvS_, symObjAddr: 0x18, symBinAddr: 0x1000013AC, symSize: 0x18 }
  - { offset: 0x3365A, size: 0x8, addend: 0x0, symName: __ZnwmPv, symObjAddr: 0x0, symBinAddr: 0x100001394, symSize: 0x18 }
...
